; Function Attrs: nounwind uwtable
define hidden i32 @drsuapi_dissect_struct_DsReplicaCursor2CtrEx(ptr noundef %0, i32 noundef %1, ptr noundef %2, ptr noundef %3, ptr noundef %4, ptr noundef %5, i32 noundef %6, i32 %7) local_unnamed_addr #0 {
  %9 = getelementptr inbounds nuw i8, ptr %4, i64 28
  %10 = load i32, ptr %9, align 4
  %.not = icmp ne i32 %10, 0
  %11 = and i32 %1, 7
  %.not50 = icmp eq i32 %11, 0
  %or.cond = or i1 %.not50, %.not
  %12 = and i32 %1, -8
  %13 = add i32 %12, 8
  %.0 = select i1 %or.cond, i32 %1, i32 %13
  %.not51 = icmp eq ptr %3, null
  br i1 %.not51, label %18, label %14

14:                                               ; preds = %8
  %15 = tail call ptr @proto_tree_add_item(ptr noundef nonnull %3, i32 noundef %6, ptr noundef %0, i32 noundef %.0, i32 noundef -1, i32 noundef 0) #5
  %16 = load i32, ptr @ett_drsuapi_drsuapi_DsReplicaCursor2CtrEx, align 4
  %17 = tail call ptr @proto_item_add_subtree(ptr noundef %15, i32 noundef %16) #5
  br label %18

18:                                               ; preds = %14, %8
  %.048 = phi ptr [ %15, %14 ], [ null, %8 ]
  %.047 = phi ptr [ %17, %14 ], [ null, %8 ]
  %19 = load i32, ptr @hf_drsuapi_drsuapi_DsReplicaCursor2CtrEx_version, align 4
  %20 = tail call i32 @PIDL_dissect_uint32(ptr noundef %0, i32 noundef %.0, ptr noundef %2, ptr noundef %.047, ptr noundef nonnull %4, ptr noundef %5, i32 noundef %19, i32 noundef 0) #5
  %21 = load i32, ptr @hf_drsuapi_drsuapi_DsReplicaCursor2CtrEx_reserved1, align 4
  %22 = tail call i32 @PIDL_dissect_uint32(ptr noundef %0, i32 noundef %20, ptr noundef %2, ptr noundef %.047, ptr noundef nonnull %4, ptr noundef %5, i32 noundef %21, i32 noundef 0) #5
  %23 = load i32, ptr @hf_drsuapi_drsuapi_DsReplicaCursor2CtrEx_count, align 4
  %24 = tail call i32 @PIDL_dissect_uint32(ptr noundef %0, i32 noundef %22, ptr noundef %2, ptr noundef %.047, ptr noundef nonnull %4, ptr noundef %5, i32 noundef %23, i32 noundef 0) #5
  %25 = load i32, ptr @hf_drsuapi_drsuapi_DsReplicaCursor2CtrEx_reserved2, align 4
  %26 = tail call i32 @PIDL_dissect_uint32(ptr noundef %0, i32 noundef %24, ptr noundef %2, ptr noundef %.047, ptr noundef nonnull %4, ptr noundef %5, i32 noundef %25, i32 noundef 0) #5
  %27 = tail call i32 @dissect_ndr_ucarray(ptr noundef %0, i32 noundef %26, ptr noundef %2, ptr noundef %.047, ptr noundef nonnull %4, ptr noundef %5, ptr noundef nonnull @drsuapi_dissect_element_DsReplicaCursor2CtrEx_cursors_) #5
  %28 = sub i32 %27, %.0
  tail call void @proto_item_set_len(ptr noundef %.048, i32 noundef %28) #5
  %29 = getelementptr inbounds nuw i8, ptr %4, i64 72
  %30 = load ptr, ptr %29, align 8
  %31 = getelementptr inbounds nuw i8, ptr %30, i64 96
  %32 = load i32, ptr %31, align 8
  %33 = and i32 %32, 1
  %.not52 = icmp eq i32 %33, 0
  br i1 %.not52, label %40, label %34

34:                                               ; preds = %18
  %35 = load i32, ptr %9, align 4
  %.not53 = icmp ne i32 %35, 0
  %36 = and i32 %27, 7
  %.not54 = icmp eq i32 %36, 0
  %or.cond55 = or i1 %.not54, %.not53
  br i1 %or.cond55, label %40, label %37

37:                                               ; preds = %34
  %38 = and i32 %27, -8
  %39 = add i32 %38, 8
  br label %40

40:                                               ; preds = %34, %37, %18
  %.1 = phi i32 [ %27, %34 ], [ %39, %37 ], [ %27, %18 ]
  ret i32 %.1
}